; Function Attrs: inlinehint nounwind sspstrong uwtable
define internal fastcc i64 @f_abs(i64 noundef %0) unnamed_addr #3 {
  %2 = and i64 %0, 1
  %.not.i = icmp eq i64 %2, 0
  br i1 %.not.i, label %3, label %rb_integer_type_p.exit.thread

3:                                                ; preds = %1
  %4 = icmp eq i64 %0, 0
  %5 = and i64 %0, 6
  %6 = icmp ne i64 %5, 0
  %7 = or i1 %4, %6
  br i1 %7, label %rb_integer_type_p.exit.thread15, label %rb_integer_type_p.exit

rb_integer_type_p.exit:                           ; preds = %3
  %8 = inttoptr i64 %0 to ptr
  %9 = load i64, ptr %8, align 8, !tbaa !19
  %10 = and i64 %9, 31
  %11 = icmp eq i64 %10, 10
  br i1 %11, label %rb_integer_type_p.exit.thread, label %rb_integer_type_p.exit.thread15

rb_integer_type_p.exit.thread:                    ; preds = %1, %rb_integer_type_p.exit
  %12 = tail call i64 @rb_int_abs(i64 noundef %0) #17
  br label %32

rb_integer_type_p.exit.thread15:                  ; preds = %3, %rb_integer_type_p.exit
  %13 = and i64 %0, 2
  %.not = icmp eq i64 %13, 0
  br i1 %.not, label %14, label %RB_FLOAT_TYPE_P.exit.thread

14:                                               ; preds = %rb_integer_type_p.exit.thread15
  %15 = and i64 %0, 4
  %16 = icmp ne i64 %15, 0
  %17 = or i1 %4, %16
  br i1 %17, label %rbimpl_RB_TYPE_P_fastpath.exit.thread, label %RB_FLOAT_TYPE_P.exit

RB_FLOAT_TYPE_P.exit:                             ; preds = %14
  %18 = inttoptr i64 %0 to ptr
  %19 = load i64, ptr %18, align 8, !tbaa !19
  %20 = and i64 %19, 31
  %21 = icmp eq i64 %20, 4
  br i1 %21, label %RB_FLOAT_TYPE_P.exit.thread, label %rbimpl_RB_TYPE_P_fastpath.exit11

RB_FLOAT_TYPE_P.exit.thread:                      ; preds = %rb_integer_type_p.exit.thread15, %RB_FLOAT_TYPE_P.exit
  %22 = tail call i64 @rb_float_abs(i64 noundef %0) #17
  br label %32

rbimpl_RB_TYPE_P_fastpath.exit11:                 ; preds = %RB_FLOAT_TYPE_P.exit
  %23 = inttoptr i64 %0 to ptr
  %24 = load i64, ptr %23, align 8, !tbaa !19
  %25 = and i64 %24, 31
  switch i64 %25, label %rbimpl_RB_TYPE_P_fastpath.exit.thread [
    i64 15, label %26
    i64 14, label %28
  ]

26:                                               ; preds = %rbimpl_RB_TYPE_P_fastpath.exit11
  %27 = tail call i64 @rb_rational_abs(i64 noundef %0) #17
  br label %32

28:                                               ; preds = %rbimpl_RB_TYPE_P_fastpath.exit11
  %29 = tail call i64 @rb_complex_abs(i64 noundef %0)
  br label %32

rbimpl_RB_TYPE_P_fastpath.exit.thread:            ; preds = %rbimpl_RB_TYPE_P_fastpath.exit11, %14
  %30 = load i64, ptr @id_abs, align 8, !tbaa !11
  %31 = tail call i64 (i64, i64, i32, ...) @rb_funcall(i64 noundef %0, i64 noundef %30, i32 noundef 0) #17
  br label %32

32:                                               ; preds = %rbimpl_RB_TYPE_P_fastpath.exit.thread, %28, %26, %RB_FLOAT_TYPE_P.exit.thread, %rb_integer_type_p.exit.thread
  %.0 = phi i64 [ %12, %rb_integer_type_p.exit.thread ], [ %22, %RB_FLOAT_TYPE_P.exit.thread ], [ %27, %26 ], [ %29, %28 ], [ %31, %rbimpl_RB_TYPE_P_fastpath.exit.thread ]
  ret i64 %.0
}